target datalayout = "e-m:e-p270:32:32-p271:32:32-p272:64:64-i64:64-i128:128-f80:128-n8:16:32:64-S128"
target triple = "x86_64-pc-linux-gnu"

%"class.std::__cxx11::basic_string" = type { %"struct.std::__cxx11::basic_string<char>::_Alloc_hider", i64, %union.anon }
%"struct.std::__cxx11::basic_string<char>::_Alloc_hider" = type { ptr }
%union.anon = type { i64, [8 x i8] }
%"class.cm::static_string_view" = type { %"class.std::basic_string_view" }
%"class.std::basic_string_view" = type { i64, ptr }
%"class.__gnu_cxx::__normal_iterator" = type { ptr }
%class.cmRange = type { %"class.__gnu_cxx::__normal_iterator", %"class.__gnu_cxx::__normal_iterator" }
%"struct.(anonymous namespace)::Args" = type { %class.cmRange }
%"class.std::optional.192" = type { %"struct.std::_Optional_base.193" }
%"struct.std::_Optional_base.193" = type { %"struct.std::_Optional_payload.195" }
%"struct.std::_Optional_payload.195" = type { %"struct.std::_Optional_payload_base.base.197", [7 x i8] }
%"struct.std::_Optional_payload_base.base.197" = type <{ %"union.std::_Optional_payload_base<(anonymous namespace)::Args>::_Storage", i8 }>
%"union.std::_Optional_payload_base<(anonymous namespace)::Args>::_Storage" = type { %"struct.(anonymous namespace)::Args" }
%class.cmAlphaNum = type { ptr, %"class.std::basic_string_view", [32 x i8] }
%"class.(anonymous namespace)::json_error" = type { %"class.std::runtime_error", %"class.std::optional.192" }
%"class.std::runtime_error" = type { %"class.std::exception", %"struct.std::__cow_string" }
%"class.std::exception" = type { ptr }
%"struct.std::__cow_string" = type { %union.anon.191 }
%union.anon.191 = type { ptr }

@_ZTIN12_GLOBAL__N_110json_errorE = internal constant { ptr, ptr, ptr } { ptr getelementptr inbounds (ptr, ptr @_ZTVN10__cxxabiv120__si_class_type_infoE, i64 2), ptr @_ZTSN12_GLOBAL__N_110json_errorE, ptr @_ZTISt13runtime_error }, align 8
@_ZTVN12_GLOBAL__N_110json_errorE = internal unnamed_addr constant { [5 x ptr] } { [5 x ptr] [ptr null, ptr @_ZTIN12_GLOBAL__N_110json_errorE, ptr @_ZN12_GLOBAL__N_110json_errorD2Ev, ptr @_ZN12_GLOBAL__N_110json_errorD0Ev, ptr @_ZNKSt13runtime_error4whatEv] }, align 8
@.str.165 = private unnamed_addr constant [32 x i8] c"expected an array index, got: '\00", align 1
@.str.166 = private unnamed_addr constant [2 x i8] c"'\00", align 1
@.str.167 = private unnamed_addr constant [29 x i8] c"expected an index less than \00", align 1
@.str.168 = private unnamed_addr constant [7 x i8] c" got '\00", align 1

; Function Attrs: mustprogress nounwind uwtable
define linkonce_odr dso_local void @_ZN2cm18static_string_viewC2ESt17basic_string_viewIcSt11char_traitsIcEE(ptr noundef nonnull align 8 dereferenceable(16) %0, i64 %1, ptr %2) unnamed_addr #5 comdat align 2 {
  %4 = alloca %"class.std::basic_string_view", align 8
  %5 = alloca ptr, align 8
  %6 = getelementptr inbounds { i64, ptr }, ptr %4, i32 0, i32 0
  store i64 %1, ptr %6, align 8
  %7 = getelementptr inbounds { i64, ptr }, ptr %4, i32 0, i32 1
  store ptr %2, ptr %7, align 8
  store ptr %0, ptr %5, align 8
  %8 = load ptr, ptr %5, align 8
  call void @llvm.memcpy.p0.p0.i64(ptr align 8 %8, ptr align 8 %4, i64 16, i1 false)
  ret void
}

; Function Attrs: mustprogress nounwind uwtable
define linkonce_odr dso_local void @_ZNSt17basic_string_viewIcSt11char_traitsIcEEC2EPKcm(ptr noundef nonnull align 8 dereferenceable(16) %0, ptr noundef %1, i64 noundef %2) unnamed_addr #5 comdat align 2 {
  %4 = alloca ptr, align 8
  %5 = alloca ptr, align 8
  %6 = alloca i64, align 8
  store ptr %0, ptr %4, align 8
  store ptr %1, ptr %5, align 8
  store i64 %2, ptr %6, align 8
  %7 = load ptr, ptr %4, align 8
  %8 = getelementptr inbounds %"class.std::basic_string_view", ptr %7, i32 0, i32 0
  %9 = load i64, ptr %6, align 8
  store i64 %9, ptr %8, align 8
  %10 = getelementptr inbounds %"class.std::basic_string_view", ptr %7, i32 0, i32 1
  %11 = load ptr, ptr %5, align 8
  store ptr %11, ptr %10, align 8
  ret void
}

; Function Attrs: mustprogress nounwind uwtable
define linkonce_odr dso_local { i64, ptr } @_ZNK10cmAlphaNum4ViewEv(ptr noundef nonnull align 8 dereferenceable(56) %0) #5 comdat align 2 {
  %2 = alloca %"class.std::basic_string_view", align 8
  %3 = alloca ptr, align 8
  store ptr %0, ptr %3, align 8
  %4 = load ptr, ptr %3, align 8
  %5 = getelementptr inbounds %class.cmAlphaNum, ptr %4, i32 0, i32 0
  %6 = load ptr, ptr %5, align 8
  %7 = icmp ne ptr %6, null
  br i1 %7, label %8, label %16

8:                                                ; preds = %1
  %9 = getelementptr inbounds %class.cmAlphaNum, ptr %4, i32 0, i32 0
  %10 = load ptr, ptr %9, align 8
  %11 = call { i64, ptr } @_ZNKSt7__cxx1112basic_stringIcSt11char_traitsIcESaIcEEcvSt17basic_string_viewIcS2_EEv(ptr noundef nonnull align 8 dereferenceable(32) %10) #3
  %12 = getelementptr inbounds { i64, ptr }, ptr %2, i32 0, i32 0
  %13 = extractvalue { i64, ptr } %11, 0
  store i64 %13, ptr %12, align 8
  %14 = getelementptr inbounds { i64, ptr }, ptr %2, i32 0, i32 1
  %15 = extractvalue { i64, ptr } %11, 1
  store ptr %15, ptr %14, align 8
  br label %18

16:                                               ; preds = %1
  %17 = getelementptr inbounds %class.cmAlphaNum, ptr %4, i32 0, i32 1
  call void @llvm.memcpy.p0.p0.i64(ptr align 8 %2, ptr align 8 %17, i64 16, i1 false)
  br label %18

18:                                               ; preds = %16, %8
  %19 = load { i64, ptr }, ptr %2, align 8
  ret { i64, ptr } %19
}

; Function Attrs: mustprogress uwtable
define internal void @_ZN12_GLOBAL__N_110json_errorC2ERKNSt7__cxx1112basic_stringIcSt11char_traitsIcESaIcEEESt8optionalINS_4ArgsEE(ptr noundef nonnull align 8 dereferenceable(40) %0, ptr noundef nonnull align 8 dereferenceable(32) %1, ptr noundef byval(%"class.std::optional.192") align 8 %2) unnamed_addr #4 align 2 {
  %4 = alloca ptr, align 8
  %5 = alloca ptr, align 8
  store ptr %0, ptr %4, align 8
  store ptr %1, ptr %5, align 8
  %6 = load ptr, ptr %4, align 8
  %7 = load ptr, ptr %5, align 8
  call void @_ZNSt13runtime_errorC2ERKNSt7__cxx1112basic_stringIcSt11char_traitsIcESaIcEEE(ptr noundef nonnull align 8 dereferenceable(16) %6, ptr noundef nonnull align 8 dereferenceable(32) %7)
  store ptr getelementptr inbounds ({ [5 x ptr] }, ptr @_ZTVN12_GLOBAL__N_110json_errorE, i32 0, i32 0, i32 2), ptr %6, align 8
  %8 = getelementptr inbounds %"class.(anonymous namespace)::json_error", ptr %6, i32 0, i32 1
  call void @llvm.memcpy.p0.p0.i64(ptr align 8 %8, ptr align 8 %2, i64 24, i1 false)
  ret void
}

; Function Attrs: mustprogress uwtable
define linkonce_odr dso_local { i64, ptr } @_ZN2cmli2_sEPKcm(ptr noundef %0, i64 noundef %1) #4 comdat {
  %3 = alloca %"class.cm::static_string_view", align 8
  %4 = alloca ptr, align 8
  %5 = alloca i64, align 8
  %6 = alloca %"class.std::basic_string_view", align 8
  store ptr %0, ptr %4, align 8
  store i64 %1, ptr %5, align 8
  %7 = load ptr, ptr %4, align 8
  %8 = load i64, ptr %5, align 8
  call void @_ZNSt17basic_string_viewIcSt11char_traitsIcEEC2EPKcm(ptr noundef nonnull align 8 dereferenceable(16) %6, ptr noundef %7, i64 noundef %8) #3
  %9 = getelementptr inbounds { i64, ptr }, ptr %6, i32 0, i32 0
  %10 = load i64, ptr %9, align 8
  %11 = getelementptr inbounds { i64, ptr }, ptr %6, i32 0, i32 1
  %12 = load ptr, ptr %11, align 8
  call void @_ZN2cm18static_string_viewC2ESt17basic_string_viewIcSt11char_traitsIcEE(ptr noundef nonnull align 8 dereferenceable(16) %3, i64 %10, ptr %12)
  %13 = getelementptr inbounds %"class.cm::static_string_view", ptr %3, i32 0, i32 0
  %14 = load { i64, ptr }, ptr %13, align 8
  ret { i64, ptr } %14
}

; Function Attrs: mustprogress uwtable
define internal noundef i32 @_ZN12_GLOBAL__N_110ParseIndexERKNSt7__cxx1112basic_stringIcSt11char_traitsIcESaIcEEERKSt8optionalINS_4ArgsEEj(ptr noundef nonnull align 8 dereferenceable(32) %0, ptr noundef nonnull align 8 dereferenceable(24) %1, i32 noundef %2) #4 personality ptr @__gxx_personality_v0 {
  %4 = alloca ptr, align 8
  %5 = alloca ptr, align 8
  %6 = alloca i32, align 4
  %7 = alloca i64, align 8
  %8 = alloca %"class.std::__cxx11::basic_string", align 8
  %9 = alloca %"class.cm::static_string_view", align 8
  %10 = alloca ptr, align 8
  %11 = alloca i32, align 4
  %12 = alloca %"class.cm::static_string_view", align 8
  %13 = alloca %"class.std::optional.192", align 8
  %14 = alloca i1, align 1
  %15 = alloca i32, align 4
  %16 = alloca %class.cmAlphaNum, align 8
  %17 = alloca %"class.std::__cxx11::basic_string", align 8
  %18 = alloca %"class.cm::static_string_view", align 8
  %19 = alloca %"class.std::basic_string_view", align 8
  %20 = alloca %"class.cm::static_string_view", align 8
  %21 = alloca %"class.cm::static_string_view", align 8
  %22 = alloca %"class.std::optional.192", align 8
  %23 = alloca i1, align 1
  store ptr %0, ptr %4, align 8
  store ptr %1, ptr %5, align 8
  store i32 %2, ptr %6, align 4
  %24 = load ptr, ptr %4, align 8
  %25 = call noundef zeroext i1 @_Z12cmStrToULongRKNSt7__cxx1112basic_stringIcSt11char_traitsIcESaIcEEEPm(ptr noundef nonnull align 8 dereferenceable(32) %24, ptr noundef %7)
  br i1 %25, label %58, label %26

26:                                               ; preds = %3
  store i1 true, ptr %14, align 1
  %27 = call ptr @__cxa_allocate_exception(i64 40) #3
  %28 = invoke { i64, ptr } @_ZN2cmli2_sEPKcm(ptr noundef @.str.165, i64 noundef 31)
          to label %29 unwind label %46

29:                                               ; preds = %26
  %30 = getelementptr inbounds %"class.cm::static_string_view", ptr %9, i32 0, i32 0
  %31 = getelementptr inbounds { i64, ptr }, ptr %30, i32 0, i32 0
  %32 = extractvalue { i64, ptr } %28, 0
  store i64 %32, ptr %31, align 8
  %33 = getelementptr inbounds { i64, ptr }, ptr %30, i32 0, i32 1
  %34 = extractvalue { i64, ptr } %28, 1
  store ptr %34, ptr %33, align 8
  %35 = load ptr, ptr %4, align 8
  %36 = invoke { i64, ptr } @_ZN2cmli2_sEPKcm(ptr noundef @.str.166, i64 noundef 1)
          to label %37 unwind label %46

37:                                               ; preds = %29
  %38 = getelementptr inbounds %"class.cm::static_string_view", ptr %12, i32 0, i32 0
  %39 = getelementptr inbounds { i64, ptr }, ptr %38, i32 0, i32 0
  %40 = extractvalue { i64, ptr } %36, 0
  store i64 %40, ptr %39, align 8
  %41 = getelementptr inbounds { i64, ptr }, ptr %38, i32 0, i32 1
  %42 = extractvalue { i64, ptr } %36, 1
  store ptr %42, ptr %41, align 8
  invoke void @_Z8cmStrCatIN2cm18static_string_viewERKNSt7__cxx1112basic_stringIcSt11char_traitsIcESaIcEEEJS1_EES7_OT_OT0_DpOT1_(ptr dead_on_unwind writable sret(%"class.std::__cxx11::basic_string") align 8 %8, ptr noundef nonnull align 8 dereferenceable(16) %9, ptr noundef nonnull align 8 dereferenceable(32) %35, ptr noundef nonnull align 8 dereferenceable(16) %12)
          to label %43 unwind label %46

43:                                               ; preds = %37
  %44 = load ptr, ptr %5, align 8
  call void @llvm.memcpy.p0.p0.i64(ptr align 8 %13, ptr align 8 %44, i64 24, i1 false)
  invoke void @_ZN12_GLOBAL__N_110json_errorC2ERKNSt7__cxx1112basic_stringIcSt11char_traitsIcESaIcEEESt8optionalINS_4ArgsEE(ptr noundef nonnull align 8 dereferenceable(40) %27, ptr noundef nonnull align 8 dereferenceable(32) %8, ptr noundef byval(%"class.std::optional.192") align 8 %13)
          to label %45 unwind label %50

45:                                               ; preds = %43
  store i1 false, ptr %14, align 1
  invoke void @__cxa_throw(ptr %27, ptr @_ZTIN12_GLOBAL__N_110json_errorE, ptr @_ZN12_GLOBAL__N_110json_errorD2Ev) #15
          to label %116 unwind label %50

46:                                               ; preds = %37, %29, %26
  %47 = landingpad { ptr, i32 }
          cleanup
  %48 = extractvalue { ptr, i32 } %47, 0
  store ptr %48, ptr %10, align 8
  %49 = extractvalue { ptr, i32 } %47, 1
  store i32 %49, ptr %11, align 4
  br label %54

50:                                               ; preds = %45, %43
  %51 = landingpad { ptr, i32 }
          cleanup
  %52 = extractvalue { ptr, i32 } %51, 0
  store ptr %52, ptr %10, align 8
  %53 = extractvalue { ptr, i32 } %51, 1
  store i32 %53, ptr %11, align 4
  call void @_ZNSt7__cxx1112basic_stringIcSt11char_traitsIcESaIcEED1Ev(ptr noundef nonnull align 8 dereferenceable(32) %8) #3
  br label %54

54:                                               ; preds = %50, %46
  %55 = load i1, ptr %14, align 1
  br i1 %55, label %56, label %57

56:                                               ; preds = %54
  call void @__cxa_free_exception(ptr %27) #3
  br label %57

57:                                               ; preds = %56, %54
  br label %111

58:                                               ; preds = %3
  %59 = load i64, ptr %7, align 8
  %60 = trunc i64 %59 to i32
  store i32 %60, ptr %15, align 4
  %61 = load i32, ptr %15, align 4
  %62 = load i32, ptr %6, align 4
  %63 = icmp uge i32 %61, %62
  br i1 %63, label %64, label %109

64:                                               ; preds = %58
  %65 = load i32, ptr %6, align 4
  call void @_ZN10cmAlphaNumC1Ej(ptr noundef nonnull align 8 dereferenceable(56) %16, i32 noundef %65)
  store i1 true, ptr %23, align 1
  %66 = call ptr @__cxa_allocate_exception(i64 40) #3
  %67 = invoke { i64, ptr } @_ZN2cmli2_sEPKcm(ptr noundef @.str.167, i64 noundef 28)
          to label %68 unwind label %97

68:                                               ; preds = %64
  %69 = getelementptr inbounds %"class.cm::static_string_view", ptr %18, i32 0, i32 0
  %70 = getelementptr inbounds { i64, ptr }, ptr %69, i32 0, i32 0
  %71 = extractvalue { i64, ptr } %67, 0
  store i64 %71, ptr %70, align 8
  %72 = getelementptr inbounds { i64, ptr }, ptr %69, i32 0, i32 1
  %73 = extractvalue { i64, ptr } %67, 1
  store ptr %73, ptr %72, align 8
  %74 = call { i64, ptr } @_ZNK10cmAlphaNum4ViewEv(ptr noundef nonnull align 8 dereferenceable(56) %16)
  %75 = getelementptr inbounds { i64, ptr }, ptr %19, i32 0, i32 0
  %76 = extractvalue { i64, ptr } %74, 0
  store i64 %76, ptr %75, align 8
  %77 = getelementptr inbounds { i64, ptr }, ptr %19, i32 0, i32 1
  %78 = extractvalue { i64, ptr } %74, 1
  store ptr %78, ptr %77, align 8
  %79 = invoke { i64, ptr } @_ZN2cmli2_sEPKcm(ptr noundef @.str.168, i64 noundef 6)
          to label %80 unwind label %97

80:                                               ; preds = %68
  %81 = getelementptr inbounds %"class.cm::static_string_view", ptr %20, i32 0, i32 0
  %82 = getelementptr inbounds { i64, ptr }, ptr %81, i32 0, i32 0
  %83 = extractvalue { i64, ptr } %79, 0
  store i64 %83, ptr %82, align 8
  %84 = getelementptr inbounds { i64, ptr }, ptr %81, i32 0, i32 1
  %85 = extractvalue { i64, ptr } %79, 1
  store ptr %85, ptr %84, align 8
  %86 = load ptr, ptr %4, align 8
  %87 = invoke { i64, ptr } @_ZN2cmli2_sEPKcm(ptr noundef @.str.166, i64 noundef 1)
          to label %88 unwind label %97

88:                                               ; preds = %80
  %89 = getelementptr inbounds %"class.cm::static_string_view", ptr %21, i32 0, i32 0
  %90 = getelementptr inbounds { i64, ptr }, ptr %89, i32 0, i32 0
  %91 = extractvalue { i64, ptr } %87, 0
  store i64 %91, ptr %90, align 8
  %92 = getelementptr inbounds { i64, ptr }, ptr %89, i32 0, i32 1
  %93 = extractvalue { i64, ptr } %87, 1
  store ptr %93, ptr %92, align 8
  invoke void @_Z8cmStrCatIN2cm18static_string_viewESt17basic_string_viewIcSt11char_traitsIcEEJS1_RKNSt7__cxx1112basic_stringIcS4_SaIcEEES1_EES9_OT_OT0_DpOT1_(ptr dead_on_unwind writable sret(%"class.std::__cxx11::basic_string") align 8 %17, ptr noundef nonnull align 8 dereferenceable(16) %18, ptr noundef nonnull align 8 dereferenceable(16) %19, ptr noundef nonnull align 8 dereferenceable(16) %20, ptr noundef nonnull align 8 dereferenceable(32) %86, ptr noundef nonnull align 8 dereferenceable(16) %21)
          to label %94 unwind label %97

94:                                               ; preds = %88
  %95 = load ptr, ptr %5, align 8
  call void @llvm.memcpy.p0.p0.i64(ptr align 8 %22, ptr align 8 %95, i64 24, i1 false)
  invoke void @_ZN12_GLOBAL__N_110json_errorC2ERKNSt7__cxx1112basic_stringIcSt11char_traitsIcESaIcEEESt8optionalINS_4ArgsEE(ptr noundef nonnull align 8 dereferenceable(40) %66, ptr noundef nonnull align 8 dereferenceable(32) %17, ptr noundef byval(%"class.std::optional.192") align 8 %22)
          to label %96 unwind label %101

96:                                               ; preds = %94
  store i1 false, ptr %23, align 1
  invoke void @__cxa_throw(ptr %66, ptr @_ZTIN12_GLOBAL__N_110json_errorE, ptr @_ZN12_GLOBAL__N_110json_errorD2Ev) #15
          to label %116 unwind label %101

97:                                               ; preds = %88, %80, %68, %64
  %98 = landingpad { ptr, i32 }
          cleanup
  %99 = extractvalue { ptr, i32 } %98, 0
  store ptr %99, ptr %10, align 8
  %100 = extractvalue { ptr, i32 } %98, 1
  store i32 %100, ptr %11, align 4
  br label %105

101:                                              ; preds = %96, %94
  %102 = landingpad { ptr, i32 }
          cleanup
  %103 = extractvalue { ptr, i32 } %102, 0
  store ptr %103, ptr %10, align 8
  %104 = extractvalue { ptr, i32 } %102, 1
  store i32 %104, ptr %11, align 4
  call void @_ZNSt7__cxx1112basic_stringIcSt11char_traitsIcESaIcEED1Ev(ptr noundef nonnull align 8 dereferenceable(32) %17) #3
  br label %105

105:                                              ; preds = %101, %97
  %106 = load i1, ptr %23, align 1
  br i1 %106, label %107, label %108

107:                                              ; preds = %105
  call void @__cxa_free_exception(ptr %66) #3
  br label %108

108:                                              ; preds = %107, %105
  br label %111

109:                                              ; preds = %58
  %110 = load i32, ptr %15, align 4
  ret i32 %110

111:                                              ; preds = %108, %57
  %112 = load ptr, ptr %10, align 8
  %113 = load i32, ptr %11, align 4
  %114 = insertvalue { ptr, i32 } poison, ptr %112, 0
  %115 = insertvalue { ptr, i32 } %114, i32 %113, 1
  resume { ptr, i32 } %115

116:                                              ; preds = %96, %45
  unreachable
}