; Function Attrs: mustprogress uwtable
define internal fastcc noundef i32 @_ZN12_GLOBAL__N_110ParseIndexERKNSt7__cxx1112basic_stringIcSt11char_traitsIcESaIcEEERKSt8optionalINS_4ArgsEEj(ptr noundef nonnull align 8 dereferenceable(32) %0, ptr nocapture noundef nonnull readonly align 8 dereferenceable(24) %1, i32 noundef %2) unnamed_addr #3 personality ptr @__gxx_personality_v0 {
  %.sroa.028 = alloca %"struct.std::_Optional_payload.195", align 8
  %.sroa.027 = alloca %"struct.std::_Optional_payload.195", align 8
  %4 = alloca i64, align 8
  %5 = alloca %"class.std::__cxx11::basic_string", align 8
  %6 = alloca %"class.cm::static_string_view", align 8
  %7 = alloca %"class.cm::static_string_view", align 8
  %8 = alloca %class.cmAlphaNum, align 8
  %9 = alloca %"class.std::__cxx11::basic_string", align 8
  %10 = alloca %"class.cm::static_string_view", align 8
  %11 = alloca %"class.std::basic_string_view", align 8
  %12 = alloca %"class.cm::static_string_view", align 8
  %13 = alloca %"class.cm::static_string_view", align 8
  %14 = call noundef zeroext i1 @_Z12cmStrToULongRKNSt7__cxx1112basic_stringIcSt11char_traitsIcESaIcEEEPm(ptr noundef nonnull align 8 dereferenceable(32) %0, ptr noundef nonnull %4)
  br i1 %14, label %27, label %15

15:                                               ; preds = %3
  %16 = call ptr @__cxa_allocate_exception(i64 40) #20
  store i64 31, ptr %6, align 8
  %17 = getelementptr inbounds i8, ptr %6, i64 8
  store ptr @.str.165, ptr %17, align 8
  store i64 1, ptr %7, align 8
  %18 = getelementptr inbounds i8, ptr %7, i64 8
  store ptr @.str.166, ptr %18, align 8
  invoke void @_Z8cmStrCatIN2cm18static_string_viewERKNSt7__cxx1112basic_stringIcSt11char_traitsIcESaIcEEEJS1_EES7_OT_OT0_DpOT1_(ptr dead_on_unwind nonnull writable sret(%"class.std::__cxx11::basic_string") align 8 %5, ptr noundef nonnull align 8 dereferenceable(16) %6, ptr noundef nonnull align 8 dereferenceable(32) %0, ptr noundef nonnull align 8 dereferenceable(16) %7)
          to label %19 unwind label %.thread

19:                                               ; preds = %15
  call void @llvm.lifetime.start.p0(i64 24, ptr nonnull %.sroa.027)
  call void @llvm.memcpy.p0.p0.i64(ptr noundef nonnull align 8 dereferenceable(24) %.sroa.027, ptr noundef nonnull align 8 dereferenceable(24) %1, i64 24, i1 false)
  invoke void @_ZNSt13runtime_errorC2ERKNSt7__cxx1112basic_stringIcSt11char_traitsIcESaIcEEE(ptr noundef nonnull align 8 dereferenceable(16) %16, ptr noundef nonnull align 8 dereferenceable(32) %5)
          to label %21 unwind label %.thread32

.thread32:                                        ; preds = %19
  %20 = landingpad { ptr, i32 }
          cleanup
  call void @_ZNSt7__cxx1112basic_stringIcSt11char_traitsIcESaIcEED1Ev(ptr noundef nonnull align 8 dereferenceable(32) %5) #20
  br label %26

21:                                               ; preds = %19
  store ptr getelementptr inbounds ({ [5 x ptr] }, ptr @_ZTVN12_GLOBAL__N_110json_errorE, i64 0, i32 0, i64 2), ptr %16, align 8
  %22 = getelementptr inbounds i8, ptr %16, i64 16
  call void @llvm.memcpy.p0.p0.i64(ptr noundef nonnull align 8 dereferenceable(24) %22, ptr noundef nonnull align 8 dereferenceable(24) %.sroa.027, i64 24, i1 false)
  call void @llvm.lifetime.end.p0(i64 24, ptr nonnull %.sroa.027)
  invoke void @__cxa_throw(ptr nonnull %16, ptr nonnull @_ZTIN12_GLOBAL__N_110json_errorE, ptr nonnull @_ZN12_GLOBAL__N_110json_errorD2Ev) #21
          to label %54 unwind label %24

.thread:                                          ; preds = %15
  %23 = landingpad { ptr, i32 }
          cleanup
  br label %26

24:                                               ; preds = %21
  %25 = landingpad { ptr, i32 }
          cleanup
  call void @_ZNSt7__cxx1112basic_stringIcSt11char_traitsIcESaIcEED1Ev(ptr noundef nonnull align 8 dereferenceable(32) %5) #20
  br label %53

26:                                               ; preds = %.thread32, %.thread
  %.pn31 = phi { ptr, i32 } [ %23, %.thread ], [ %20, %.thread32 ]
  call void @__cxa_free_exception(ptr %16) #20
  br label %53

27:                                               ; preds = %3
  %28 = load i64, ptr %4, align 8
  %29 = trunc i64 %28 to i32
  %.not = icmp ult i32 %29, %2
  br i1 %.not, label %52, label %30

30:                                               ; preds = %27
  call void @_ZN10cmAlphaNumC1Ej(ptr noundef nonnull align 8 dereferenceable(56) %8, i32 noundef %2)
  %31 = call ptr @__cxa_allocate_exception(i64 40) #20
  store i64 28, ptr %10, align 8
  %32 = getelementptr inbounds i8, ptr %10, i64 8
  store ptr @.str.167, ptr %32, align 8
  %33 = load ptr, ptr %8, align 8
  %.not.i = icmp eq ptr %33, null
  br i1 %.not.i, label %38, label %34

34:                                               ; preds = %30
  %35 = call { i64, ptr } @_ZNKSt7__cxx1112basic_stringIcSt11char_traitsIcESaIcEEcvSt17basic_string_viewIcS2_EEv(ptr noundef nonnull align 8 dereferenceable(32) %33) #20
  %36 = extractvalue { i64, ptr } %35, 0
  %37 = extractvalue { i64, ptr } %35, 1
  br label %40

38:                                               ; preds = %30
  %39 = getelementptr inbounds i8, ptr %8, i64 8
  %.sroa.0.0.copyload.i = load i64, ptr %39, align 8
  %.sroa.3.0..sroa_idx.i = getelementptr inbounds i8, ptr %8, i64 16
  %.sroa.3.0.copyload.i = load ptr, ptr %.sroa.3.0..sroa_idx.i, align 8
  br label %40

40:                                               ; preds = %34, %38
  %.sroa.0.0.i = phi i64 [ %36, %34 ], [ %.sroa.0.0.copyload.i, %38 ]
  %.sroa.3.0.i = phi ptr [ %37, %34 ], [ %.sroa.3.0.copyload.i, %38 ]
  store i64 %.sroa.0.0.i, ptr %11, align 8
  %41 = getelementptr inbounds i8, ptr %11, i64 8
  store ptr %.sroa.3.0.i, ptr %41, align 8
  store i64 6, ptr %12, align 8
  %42 = getelementptr inbounds i8, ptr %12, i64 8
  store ptr @.str.168, ptr %42, align 8
  store i64 1, ptr %13, align 8
  %43 = getelementptr inbounds i8, ptr %13, i64 8
  store ptr @.str.166, ptr %43, align 8
  invoke void @_Z8cmStrCatIN2cm18static_string_viewESt17basic_string_viewIcSt11char_traitsIcEEJS1_RKNSt7__cxx1112basic_stringIcS4_SaIcEEES1_EES9_OT_OT0_DpOT1_(ptr dead_on_unwind nonnull writable sret(%"class.std::__cxx11::basic_string") align 8 %9, ptr noundef nonnull align 8 dereferenceable(16) %10, ptr noundef nonnull align 8 dereferenceable(16) %11, ptr noundef nonnull align 8 dereferenceable(16) %12, ptr noundef nonnull align 8 dereferenceable(32) %0, ptr noundef nonnull align 8 dereferenceable(16) %13)
          to label %44 unwind label %.thread34

44:                                               ; preds = %40
  call void @llvm.lifetime.start.p0(i64 24, ptr nonnull %.sroa.028)
  call void @llvm.memcpy.p0.p0.i64(ptr noundef nonnull align 8 dereferenceable(24) %.sroa.028, ptr noundef nonnull align 8 dereferenceable(24) %1, i64 24, i1 false)
  invoke void @_ZNSt13runtime_errorC2ERKNSt7__cxx1112basic_stringIcSt11char_traitsIcESaIcEEE(ptr noundef nonnull align 8 dereferenceable(16) %31, ptr noundef nonnull align 8 dereferenceable(32) %9)
          to label %46 unwind label %.thread38

.thread38:                                        ; preds = %44
  %45 = landingpad { ptr, i32 }
          cleanup
  call void @_ZNSt7__cxx1112basic_stringIcSt11char_traitsIcESaIcEED1Ev(ptr noundef nonnull align 8 dereferenceable(32) %9) #20
  br label %51

46:                                               ; preds = %44
  store ptr getelementptr inbounds ({ [5 x ptr] }, ptr @_ZTVN12_GLOBAL__N_110json_errorE, i64 0, i32 0, i64 2), ptr %31, align 8
  %47 = getelementptr inbounds i8, ptr %31, i64 16
  call void @llvm.memcpy.p0.p0.i64(ptr noundef nonnull align 8 dereferenceable(24) %47, ptr noundef nonnull align 8 dereferenceable(24) %.sroa.028, i64 24, i1 false)
  call void @llvm.lifetime.end.p0(i64 24, ptr nonnull %.sroa.028)
  invoke void @__cxa_throw(ptr nonnull %31, ptr nonnull @_ZTIN12_GLOBAL__N_110json_errorE, ptr nonnull @_ZN12_GLOBAL__N_110json_errorD2Ev) #21
          to label %54 unwind label %49

.thread34:                                        ; preds = %40
  %48 = landingpad { ptr, i32 }
          cleanup
  br label %51

49:                                               ; preds = %46
  %50 = landingpad { ptr, i32 }
          cleanup
  call void @_ZNSt7__cxx1112basic_stringIcSt11char_traitsIcESaIcEED1Ev(ptr noundef nonnull align 8 dereferenceable(32) %9) #20
  br label %53

51:                                               ; preds = %.thread38, %.thread34
  %.pn2237 = phi { ptr, i32 } [ %48, %.thread34 ], [ %45, %.thread38 ]
  call void @__cxa_free_exception(ptr %31) #20
  br label %53

52:                                               ; preds = %27
  ret i32 %29

53:                                               ; preds = %49, %24, %51, %26
  %.pn22.pn = phi { ptr, i32 } [ %.pn2237, %51 ], [ %50, %49 ], [ %.pn31, %26 ], [ %25, %24 ]
  resume { ptr, i32 } %.pn22.pn

54:                                               ; preds = %46, %21
  unreachable
}